; ModuleID = '44/906.c'
source_filename = "44/906.c"
target datalayout = "e-m:e-p270:32:32-p271:32:32-p272:64:64-i64:64-f80:128-n8:16:32:64-S128"
target triple = "x86_64-pc-linux-gnu"

@.str = private unnamed_addr constant [3 x i8] c"0\0A\00", align 1
@.str.1 = private unnamed_addr constant [4 x i8] c"-0\0A\00", align 1
@.str.2 = private unnamed_addr constant [2 x i8] c"-\00", align 1
@.str.3 = private unnamed_addr constant [2 x i8] c"\0A\00", align 1
@.str.4 = private unnamed_addr constant [3 x i8] c"%c\00", align 1

; Function Attrs: noinline nounwind uwtable
define dso_local void @main() #0 {
  %1 = alloca [6 x [20 x i8]], align 16
  %2 = alloca [20 x i8], align 16
  %3 = alloca i32, align 4
  %4 = alloca i32, align 4
  store i32 0, i32* %3, align 4
  br label %5

5:                                                ; preds = %28, %0
  %6 = load i32, i32* %3, align 4
  %7 = icmp slt i32 %6, 6
  br i1 %7, label %8, label %31

8:                                                ; preds = %5
  store i32 0, i32* %4, align 4
  br label %9

9:                                                ; preds = %19, %8
  %10 = load i32, i32* %4, align 4
  %11 = icmp slt i32 %10, 20
  br i1 %11, label %12, label %22

12:                                               ; preds = %9
  %13 = load i32, i32* %3, align 4
  %14 = sext i32 %13 to i64
  %15 = getelementptr inbounds [6 x [20 x i8]], [6 x [20 x i8]]* %1, i64 0, i64 %14
  %16 = load i32, i32* %4, align 4
  %17 = sext i32 %16 to i64
  %18 = getelementptr inbounds [20 x i8], [20 x i8]* %15, i64 0, i64 %17
  store i8 48, i8* %18, align 1
  br label %19

19:                                               ; preds = %12
  %20 = load i32, i32* %4, align 4
  %21 = add nsw i32 %20, 1
  store i32 %21, i32* %4, align 4
  br label %9

22:                                               ; preds = %9
  %23 = load i32, i32* %3, align 4
  %24 = sext i32 %23 to i64
  %25 = getelementptr inbounds [6 x [20 x i8]], [6 x [20 x i8]]* %1, i64 0, i64 %24
  %26 = getelementptr inbounds [20 x i8], [20 x i8]* %25, i64 0, i64 0
  %27 = call i32 (i8*, ...) bitcast (i32 (...)* @gets to i32 (i8*, ...)*)(i8* %26)
  br label %28

28:                                               ; preds = %22
  %29 = load i32, i32* %3, align 4
  %30 = add nsw i32 %29, 1
  store i32 %30, i32* %3, align 4
  br label %5

31:                                               ; preds = %5
  store i32 0, i32* %3, align 4
  br label %32

32:                                               ; preds = %119, %31
  %33 = load i32, i32* %3, align 4
  %34 = icmp slt i32 %33, 6
  br i1 %34, label %35, label %122

35:                                               ; preds = %32
  %36 = load i32, i32* %3, align 4
  %37 = sext i32 %36 to i64
  %38 = getelementptr inbounds [6 x [20 x i8]], [6 x [20 x i8]]* %1, i64 0, i64 %37
  %39 = getelementptr inbounds [20 x i8], [20 x i8]* %38, i64 0, i64 0
  %40 = load i8, i8* %39, align 4
  %41 = sext i8 %40 to i32
  %42 = icmp eq i32 %41, 48
  br i1 %42, label %43, label %45

43:                                               ; preds = %35
  %44 = call i32 (i8*, ...) @printf(i8* getelementptr inbounds ([3 x i8], [3 x i8]* @.str, i64 0, i64 0))
  br label %118

45:                                               ; preds = %35
  %46 = load i32, i32* %3, align 4
  %47 = sext i32 %46 to i64
  %48 = getelementptr inbounds [6 x [20 x i8]], [6 x [20 x i8]]* %1, i64 0, i64 %47
  %49 = getelementptr inbounds [20 x i8], [20 x i8]* %48, i64 0, i64 0
  %50 = load i8, i8* %49, align 4
  %51 = sext i8 %50 to i32
  %52 = icmp eq i32 %51, 45
  br i1 %52, label %53, label %63

53:                                               ; preds = %45
  %54 = load i32, i32* %3, align 4
  %55 = sext i32 %54 to i64
  %56 = getelementptr inbounds [6 x [20 x i8]], [6 x [20 x i8]]* %1, i64 0, i64 %55
  %57 = getelementptr inbounds [20 x i8], [20 x i8]* %56, i64 0, i64 1
  %58 = load i8, i8* %57, align 1
  %59 = sext i8 %58 to i32
  %60 = icmp eq i32 %59, 48
  br i1 %60, label %61, label %63

61:                                               ; preds = %53
  %62 = call i32 (i8*, ...) @printf(i8* getelementptr inbounds ([4 x i8], [4 x i8]* @.str.1, i64 0, i64 0))
  br label %117

63:                                               ; preds = %53, %45
  %64 = load i32, i32* %3, align 4
  %65 = sext i32 %64 to i64
  %66 = getelementptr inbounds [6 x [20 x i8]], [6 x [20 x i8]]* %1, i64 0, i64 %65
  %67 = getelementptr inbounds [20 x i8], [20 x i8]* %66, i64 0, i64 0
  %68 = load i8, i8* %67, align 4
  %69 = sext i8 %68 to i32
  %70 = icmp eq i32 %69, 45
  br i1 %70, label %71, label %95

71:                                               ; preds = %63
  store i32 0, i32* %4, align 4
  br label %72

72:                                               ; preds = %87, %71
  %73 = load i32, i32* %4, align 4
  %74 = icmp slt i32 %73, 19
  br i1 %74, label %75, label %90

75:                                               ; preds = %72
  %76 = load i32, i32* %3, align 4
  %77 = sext i32 %76 to i64
  %78 = getelementptr inbounds [6 x [20 x i8]], [6 x [20 x i8]]* %1, i64 0, i64 %77
  %79 = load i32, i32* %4, align 4
  %80 = add nsw i32 %79, 1
  %81 = sext i32 %80 to i64
  %82 = getelementptr inbounds [20 x i8], [20 x i8]* %78, i64 0, i64 %81
  %83 = load i8, i8* %82, align 1
  %84 = load i32, i32* %4, align 4
  %85 = sext i32 %84 to i64
  %86 = getelementptr inbounds [20 x i8], [20 x i8]* %2, i64 0, i64 %85
  store i8 %83, i8* %86, align 1
  br label %87

87:                                               ; preds = %75
  %88 = load i32, i32* %4, align 4
  %89 = add nsw i32 %88, 1
  store i32 %89, i32* %4, align 4
  br label %72

90:                                               ; preds = %72
  %91 = getelementptr inbounds [20 x i8], [20 x i8]* %2, i64 0, i64 20
  store i8 48, i8* %91, align 4
  %92 = call i32 (i8*, ...) @printf(i8* getelementptr inbounds ([2 x i8], [2 x i8]* @.str.2, i64 0, i64 0))
  %93 = getelementptr inbounds [20 x i8], [20 x i8]* %2, i64 0, i64 0
  call void @doc(i8* %93)
  %94 = call i32 (i8*, ...) @printf(i8* getelementptr inbounds ([2 x i8], [2 x i8]* @.str.3, i64 0, i64 0))
  br label %116

95:                                               ; preds = %63
  store i32 0, i32* %4, align 4
  br label %96

96:                                               ; preds = %110, %95
  %97 = load i32, i32* %4, align 4
  %98 = icmp slt i32 %97, 20
  br i1 %98, label %99, label %113

99:                                               ; preds = %96
  %100 = load i32, i32* %3, align 4
  %101 = sext i32 %100 to i64
  %102 = getelementptr inbounds [6 x [20 x i8]], [6 x [20 x i8]]* %1, i64 0, i64 %101
  %103 = load i32, i32* %4, align 4
  %104 = sext i32 %103 to i64
  %105 = getelementptr inbounds [20 x i8], [20 x i8]* %102, i64 0, i64 %104
  %106 = load i8, i8* %105, align 1
  %107 = load i32, i32* %4, align 4
  %108 = sext i32 %107 to i64
  %109 = getelementptr inbounds [20 x i8], [20 x i8]* %2, i64 0, i64 %108
  store i8 %106, i8* %109, align 1
  br label %110

110:                                              ; preds = %99
  %111 = load i32, i32* %4, align 4
  %112 = add nsw i32 %111, 1
  store i32 %112, i32* %4, align 4
  br label %96

113:                                              ; preds = %96
  %114 = getelementptr inbounds [20 x i8], [20 x i8]* %2, i64 0, i64 0
  call void @doc(i8* %114)
  %115 = call i32 (i8*, ...) @printf(i8* getelementptr inbounds ([2 x i8], [2 x i8]* @.str.3, i64 0, i64 0))
  br label %116

116:                                              ; preds = %113, %90
  br label %117

117:                                              ; preds = %116, %61
  br label %118

118:                                              ; preds = %117, %43
  br label %119

119:                                              ; preds = %118
  %120 = load i32, i32* %3, align 4
  %121 = add nsw i32 %120, 1
  store i32 %121, i32* %3, align 4
  br label %32

122:                                              ; preds = %32
  ret void
}

declare dso_local i32 @gets(...) #1

declare dso_local i32 @printf(i8*, ...) #1

; Function Attrs: noinline nounwind uwtable
define dso_local void @doc(i8* %0) #0 {
  %2 = alloca i8*, align 8
  %3 = alloca i8*, align 8
  store i8* %0, i8** %2, align 8
  %4 = load i8*, i8** %2, align 8
  store i8* %4, i8** %3, align 8
  %5 = load i8*, i8** %3, align 8
  %6 = getelementptr inbounds i8, i8* %5, i64 19
  store i8* %6, i8** %3, align 8
  br label %7

7:                                                ; preds = %32, %1
  %8 = load i8*, i8** %3, align 8
  %9 = load i8, i8* %8, align 1
  %10 = sext i8 %9 to i32
  %11 = icmp eq i32 %10, 0
  br i1 %11, label %17, label %12

12:                                               ; preds = %7
  %13 = load i8*, i8** %3, align 8
  %14 = load i8, i8* %13, align 1
  %15 = sext i8 %14 to i32
  %16 = icmp eq i32 %15, 48
  br label %17

17:                                               ; preds = %12, %7
  %18 = phi i1 [ true, %7 ], [ %16, %12 ]
  br i1 %18, label %19, label %33

19:                                               ; preds = %17
  %20 = load i8*, i8** %3, align 8
  %21 = getelementptr inbounds i8, i8* %20, i64 -1
  store i8* %21, i8** %3, align 8
  %22 = load i8*, i8** %3, align 8
  %23 = load i8, i8* %22, align 1
  %24 = sext i8 %23 to i32
  %25 = icmp ne i32 %24, 48
  br i1 %25, label %26, label %32

26:                                               ; preds = %19
  %27 = load i8*, i8** %3, align 8
  %28 = load i8, i8* %27, align 1
  %29 = sext i8 %28 to i32
  %30 = icmp ne i32 %29, 0
  br i1 %30, label %31, label %32

31:                                               ; preds = %26
  br label %33

32:                                               ; preds = %26, %19
  br label %7

33:                                               ; preds = %31, %17
  %34 = load i8*, i8** %3, align 8
  store i8* %34, i8** %3, align 8
  br label %35

35:                                               ; preds = %44, %33
  %36 = load i8*, i8** %3, align 8
  %37 = load i8*, i8** %2, align 8
  %38 = icmp uge i8* %36, %37
  br i1 %38, label %39, label %47

39:                                               ; preds = %35
  %40 = load i8*, i8** %3, align 8
  %41 = load i8, i8* %40, align 1
  %42 = sext i8 %41 to i32
  %43 = call i32 (i8*, ...) @printf(i8* getelementptr inbounds ([3 x i8], [3 x i8]* @.str.4, i64 0, i64 0), i32 %42)
  br label %44

44:                                               ; preds = %39
  %45 = load i8*, i8** %3, align 8
  %46 = getelementptr inbounds i8, i8* %45, i32 -1
  store i8* %46, i8** %3, align 8
  br label %35

47:                                               ; preds = %35
  ret void
}


!llvm.module.flags = !{!0}
!llvm.ident = !{!1}

!0 = !{i32 1, !"wchar_size", i32 4}
!1 = !{!"clang version 10.0.0-4ubuntu1 "}
